target datalayout = "e-m:e-p270:32:32-p271:32:32-p272:64:64-i64:64-i128:128-f80:128-n8:16:32:64-S128"
target triple = "x86_64-pc-linux-gnu"

@replorigin_session_origin = dso_local global i16 0, align 2
@.str.1 = private unnamed_addr constant [9 x i8] c"origin.c\00", align 1
@max_replication_slots = external global i32, align 4
@.str.32 = private unnamed_addr constant [80 x i8] c"cannot query or manipulate replication origin when \22max_replication_slots\22 is 0\00", align 1
@__func__.replorigin_check_prerequisites = private unnamed_addr constant [31 x i8] c"replorigin_check_prerequisites\00", align 1
@.str.33 = private unnamed_addr constant [54 x i8] c"cannot manipulate replication origins during recovery\00", align 1

; Function Attrs: inlinehint nounwind uwtable
define internal i64 @BoolGetDatum(i1 noundef zeroext %0) #2 {
  %2 = alloca i8, align 1
  %3 = zext i1 %0 to i8
  store i8 %3, ptr %2, align 1
  %4 = load i8, ptr %2, align 1, !range !4, !noundef !5
  %5 = trunc i8 %4 to i1
  %6 = select i1 %5, i32 1, i32 0
  %7 = sext i32 %6 to i64
  ret i64 %7
}

; Function Attrs: nounwind uwtable
define internal void @replorigin_check_prerequisites(i1 noundef zeroext %0, i1 noundef zeroext %1) #0 {
  %3 = alloca i8, align 1
  %4 = alloca i8, align 1
  %5 = zext i1 %0 to i8
  store i8 %5, ptr %3, align 1
  %6 = zext i1 %1 to i8
  store i8 %6, ptr %4, align 1
  %7 = load i8, ptr %3, align 1, !range !4, !noundef !5
  %8 = trunc i8 %7 to i1
  br i1 %8, label %9, label %23

9:                                                ; preds = %2
  %10 = load i32, ptr @max_replication_slots, align 4
  %11 = icmp eq i32 %10, 0
  br i1 %11, label %12, label %23

12:                                               ; preds = %9
  br label %13

13:                                               ; preds = %12
  br i1 true, label %14, label %16

14:                                               ; preds = %13
  %15 = call zeroext i1 @errstart_cold(i32 noundef 21, ptr noundef null) #10
  br i1 %15, label %18, label %21

16:                                               ; preds = %13
  %17 = call zeroext i1 @errstart(i32 noundef 21, ptr noundef null)
  br i1 %17, label %18, label %21

18:                                               ; preds = %16, %14
  %19 = call i32 @errcode(i32 noundef 325)
  %20 = call i32 (ptr, ...) @errmsg(ptr noundef @.str.32)
  call void @errfinish(ptr noundef @.str.1, i32 noundef 194, ptr noundef @__func__.replorigin_check_prerequisites)
  br label %21

21:                                               ; preds = %18, %16, %14
  unreachable

22:                                               ; No predecessors!
  br label %23

23:                                               ; preds = %22, %9, %2
  %24 = load i8, ptr %4, align 1, !range !4, !noundef !5
  %25 = trunc i8 %24 to i1
  br i1 %25, label %39, label %26

26:                                               ; preds = %23
  %27 = call zeroext i1 @RecoveryInProgress()
  br i1 %27, label %28, label %39

28:                                               ; preds = %26
  br label %29

29:                                               ; preds = %28
  br i1 true, label %30, label %32

30:                                               ; preds = %29
  %31 = call zeroext i1 @errstart_cold(i32 noundef 21, ptr noundef null) #10
  br i1 %31, label %34, label %37

32:                                               ; preds = %29
  %33 = call zeroext i1 @errstart(i32 noundef 21, ptr noundef null)
  br i1 %33, label %34, label %37

34:                                               ; preds = %32, %30
  %35 = call i32 @errcode(i32 noundef 100663618)
  %36 = call i32 (ptr, ...) @errmsg(ptr noundef @.str.33)
  call void @errfinish(ptr noundef @.str.1, i32 noundef 199, ptr noundef @__func__.replorigin_check_prerequisites)
  br label %37

37:                                               ; preds = %34, %32, %30
  unreachable

38:                                               ; No predecessors!
  br label %39

39:                                               ; preds = %38, %26, %23
  ret void
}

; Function Attrs: nounwind uwtable
define dso_local i64 @pg_replication_origin_session_is_setup(ptr noundef %0) #0 {
  %2 = alloca ptr, align 8
  store ptr %0, ptr %2, align 8
  call void @replorigin_check_prerequisites(i1 noundef zeroext false, i1 noundef zeroext false)
  %3 = load i16, ptr @replorigin_session_origin, align 2
  %4 = zext i16 %3 to i32
  %5 = icmp ne i32 %4, 0
  %6 = call i64 @BoolGetDatum(i1 noundef zeroext %5)
  ret i64 %6
}