; Function Attrs: nounwind uwtable
define dso_local range(i64 0, 2) i64 @pg_replication_origin_session_is_setup(ptr noundef readnone captures(none) %0) local_unnamed_addr #0 {
  %2 = tail call zeroext i1 @RecoveryInProgress() #10
  br i1 %2, label %3, label %replorigin_check_prerequisites.exit

3:                                                ; preds = %1
  %4 = tail call zeroext i1 @errstart_cold(i32 noundef 21, ptr noundef null) #11
  tail call void @llvm.assume(i1 %4)
  %5 = tail call i32 @errcode(i32 noundef 100663618) #10
  %6 = tail call i32 (ptr, ...) @errmsg(ptr noundef nonnull @.str.33) #10
  tail call void @errfinish(ptr noundef nonnull @.str.1, i32 noundef 199, ptr noundef nonnull @__func__.replorigin_check_prerequisites) #10
  unreachable

replorigin_check_prerequisites.exit:              ; preds = %1
  %7 = load i16, ptr @replorigin_session_origin, align 2
  %8 = icmp ne i16 %7, 0
  %9 = zext i1 %8 to i64
  ret i64 %9
}